target datalayout = "e-m:e-p270:32:32-p271:32:32-p272:64:64-i64:64-i128:128-f80:128-n8:16:32:64-S128"
target triple = "x86_64-pc-linux-gnu"

; Function Attrs: nounwind uwtable
define dso_local ptr @quote_identifier(ptr noundef %0) #0 {
  %2 = alloca ptr, align 8
  %3 = alloca ptr, align 8
  %4 = alloca ptr, align 8
  store ptr %0, ptr %2, align 8
  call void @llvm.lifetime.start.p0(i64 8, ptr %3) #8
  %5 = load ptr, ptr %2, align 8
  %6 = call i64 @strlen(ptr noundef %5) #9
  %7 = mul i64 %6, 2
  %8 = add i64 %7, 3
  %9 = call ptr @pg_malloc(i64 noundef %8)
  store ptr %9, ptr %3, align 8
  call void @llvm.lifetime.start.p0(i64 8, ptr %4) #8
  %10 = load ptr, ptr %3, align 8
  store ptr %10, ptr %4, align 8
  %11 = load ptr, ptr %4, align 8
  %12 = getelementptr inbounds nuw i8, ptr %11, i32 1
  store ptr %12, ptr %4, align 8
  store i8 34, ptr %11, align 1
  br label %13

13:                                               ; preds = %27, %1
  %14 = load ptr, ptr %2, align 8
  %15 = load i8, ptr %14, align 1
  %16 = icmp ne i8 %15, 0
  br i1 %16, label %17, label %34

17:                                               ; preds = %13
  %18 = load ptr, ptr %2, align 8
  %19 = load i8, ptr %18, align 1
  %20 = sext i8 %19 to i32
  %21 = icmp eq i32 %20, 34
  br i1 %21, label %22, label %27

22:                                               ; preds = %17
  %23 = load ptr, ptr %2, align 8
  %24 = load i8, ptr %23, align 1
  %25 = load ptr, ptr %4, align 8
  %26 = getelementptr inbounds nuw i8, ptr %25, i32 1
  store ptr %26, ptr %4, align 8
  store i8 %24, ptr %25, align 1
  br label %27

27:                                               ; preds = %22, %17
  %28 = load ptr, ptr %2, align 8
  %29 = load i8, ptr %28, align 1
  %30 = load ptr, ptr %4, align 8
  %31 = getelementptr inbounds nuw i8, ptr %30, i32 1
  store ptr %31, ptr %4, align 8
  store i8 %29, ptr %30, align 1
  %32 = load ptr, ptr %2, align 8
  %33 = getelementptr inbounds nuw i8, ptr %32, i32 1
  store ptr %33, ptr %2, align 8
  br label %13, !llvm.loop !6

34:                                               ; preds = %13
  %35 = load ptr, ptr %4, align 8
  %36 = getelementptr inbounds nuw i8, ptr %35, i32 1
  store ptr %36, ptr %4, align 8
  store i8 34, ptr %35, align 1
  %37 = load ptr, ptr %4, align 8
  %38 = getelementptr inbounds nuw i8, ptr %37, i32 1
  store ptr %38, ptr %4, align 8
  store i8 0, ptr %37, align 1
  %39 = load ptr, ptr %3, align 8
  call void @llvm.lifetime.end.p0(i64 8, ptr %4) #8
  call void @llvm.lifetime.end.p0(i64 8, ptr %3) #8
  ret ptr %39
}