; Function Attrs: nounwind uwtable
define dso_local noundef ptr @quote_identifier(ptr noundef readonly captures(none) %0) local_unnamed_addr #0 {
  %2 = tail call i64 @strlen(ptr noundef nonnull dereferenceable(1) %0) #12
  %3 = shl i64 %2, 1
  %4 = add i64 %3, 3
  %5 = tail call ptr @pg_malloc(i64 noundef %4) #11
  store i8 34, ptr %5, align 1
  br label %6

6:                                                ; preds = %10, %1
  %.013 = phi ptr [ %0, %1 ], [ %12, %10 ]
  %.pn = phi ptr [ %5, %1 ], [ %.1, %10 ]
  %.0 = getelementptr inbounds nuw i8, ptr %.pn, i64 1
  %7 = load i8, ptr %.013, align 1
  switch i8 %7, label %10 [
    i8 0, label %13
    i8 34, label %8
  ]

8:                                                ; preds = %6
  %9 = getelementptr inbounds nuw i8, ptr %.pn, i64 2
  store i8 34, ptr %.0, align 1
  %.pre = load i8, ptr %.013, align 1
  br label %10

10:                                               ; preds = %6, %8
  %11 = phi i8 [ %.pre, %8 ], [ %7, %6 ]
  %.1 = phi ptr [ %9, %8 ], [ %.0, %6 ]
  store i8 %11, ptr %.1, align 1
  %12 = getelementptr inbounds nuw i8, ptr %.013, i64 1
  br label %6, !llvm.loop !6

13:                                               ; preds = %6
  %14 = getelementptr inbounds nuw i8, ptr %.pn, i64 2
  store i8 34, ptr %.0, align 1
  store i8 0, ptr %14, align 1
  ret ptr %5
}